target datalayout = "e-m:e-p270:32:32-p271:32:32-p272:64:64-i64:64-i128:128-f80:128-n8:16:32:64-S128"
target triple = "x86_64-pc-linux-gnu"

%struct.ident_t = type { i32, i32, i32, i32, ptr }
%"class.ncnn::Mat" = type { ptr, ptr, i64, i32, ptr, i32, i32, i32, i32, i32, i64 }
%"class.ncnn::Option" = type { i8, i32, ptr, ptr, i32, i8, i8, i8, i8, i8, i8, i8, i8, i8, i8, i8, i8, i8, i8, i8, i8, i8, i8, i8, i8, i32, i8, i8, i8, i8, i8, i8, i8, i8, i8, i8, i8, i8 }

@2 = private unnamed_addr constant %struct.ident_t { i32 0, i32 2, i32 0, i32 22, ptr @0 }, align 8

; Function Attrs: mustprogress nounwind uwtable
define hidden noundef i32 @_ZNK4ncnn14ELU_x86_avx51215forward_inplaceERNS_3MatERKNS_6OptionE(ptr noundef nonnull align 8 dereferenceable(212) %0, ptr noundef nonnull align 8 dereferenceable(72) %1, ptr noundef nonnull align 8 dereferenceable(64) %2) unnamed_addr #3 align 2 {
  %4 = alloca ptr, align 8
  %5 = alloca ptr, align 8
  %6 = alloca ptr, align 8
  %7 = alloca i32, align 4
  %8 = alloca i32, align 4
  %9 = alloca i32, align 4
  %10 = alloca i32, align 4
  %11 = alloca i32, align 4
  %12 = alloca i32, align 4
  %13 = call i32 @__kmpc_global_thread_num(ptr @2)
  store ptr %0, ptr %4, align 8, !tbaa !4
  store ptr %1, ptr %5, align 8, !tbaa !9
  store ptr %2, ptr %6, align 8, !tbaa !11
  %14 = load ptr, ptr %4, align 8
  call void @llvm.lifetime.start.p0(i64 4, ptr %7) #7
  %15 = load ptr, ptr %5, align 8, !tbaa !9
  %16 = getelementptr inbounds nuw %"class.ncnn::Mat", ptr %15, i32 0, i32 6
  %17 = load i32, ptr %16, align 4, !tbaa !13
  store i32 %17, ptr %7, align 4, !tbaa !19
  call void @llvm.lifetime.start.p0(i64 4, ptr %8) #7
  %18 = load ptr, ptr %5, align 8, !tbaa !9
  %19 = getelementptr inbounds nuw %"class.ncnn::Mat", ptr %18, i32 0, i32 7
  %20 = load i32, ptr %19, align 8, !tbaa !20
  store i32 %20, ptr %8, align 4, !tbaa !19
  call void @llvm.lifetime.start.p0(i64 4, ptr %9) #7
  %21 = load ptr, ptr %5, align 8, !tbaa !9
  %22 = getelementptr inbounds nuw %"class.ncnn::Mat", ptr %21, i32 0, i32 8
  %23 = load i32, ptr %22, align 4, !tbaa !21
  store i32 %23, ptr %9, align 4, !tbaa !19
  call void @llvm.lifetime.start.p0(i64 4, ptr %10) #7
  %24 = load ptr, ptr %5, align 8, !tbaa !9
  %25 = getelementptr inbounds nuw %"class.ncnn::Mat", ptr %24, i32 0, i32 9
  %26 = load i32, ptr %25, align 8, !tbaa !22
  store i32 %26, ptr %10, align 4, !tbaa !19
  call void @llvm.lifetime.start.p0(i64 4, ptr %11) #7
  %27 = load ptr, ptr %5, align 8, !tbaa !9
  %28 = getelementptr inbounds nuw %"class.ncnn::Mat", ptr %27, i32 0, i32 3
  %29 = load i32, ptr %28, align 8, !tbaa !23
  store i32 %29, ptr %11, align 4, !tbaa !19
  call void @llvm.lifetime.start.p0(i64 4, ptr %12) #7
  %30 = load i32, ptr %7, align 4, !tbaa !19
  %31 = load i32, ptr %8, align 4, !tbaa !19
  %32 = mul nsw i32 %30, %31
  %33 = load i32, ptr %9, align 4, !tbaa !19
  %34 = mul nsw i32 %32, %33
  %35 = load i32, ptr %11, align 4, !tbaa !19
  %36 = mul nsw i32 %34, %35
  store i32 %36, ptr %12, align 4, !tbaa !19
  %37 = load ptr, ptr %6, align 8, !tbaa !11
  %38 = getelementptr inbounds nuw %"class.ncnn::Option", ptr %37, i32 0, i32 1
  %39 = load i32, ptr %38, align 4, !tbaa !24
  call void @__kmpc_push_num_threads(ptr @2, i32 %13, i32 %39)
  %40 = load ptr, ptr %5, align 8, !tbaa !9
  call void (ptr, i32, ptr, ...) @__kmpc_fork_call(ptr @2, i32 4, ptr @_ZNK4ncnn14ELU_x86_avx51215forward_inplaceERNS_3MatERKNS_6OptionE.omp_outlined, ptr %10, ptr %40, ptr %14, ptr %12)
  call void @llvm.lifetime.end.p0(i64 4, ptr %12) #7
  call void @llvm.lifetime.end.p0(i64 4, ptr %11) #7
  call void @llvm.lifetime.end.p0(i64 4, ptr %10) #7
  call void @llvm.lifetime.end.p0(i64 4, ptr %9) #7
  call void @llvm.lifetime.end.p0(i64 4, ptr %8) #7
  call void @llvm.lifetime.end.p0(i64 4, ptr %7) #7
  ret i32 0
}